target datalayout = "e-m:e-p270:32:32-p271:32:32-p272:64:64-i64:64-i128:128-f80:128-n8:16:32:64-S128"
target triple = "x86_64-pc-linux-gnu"

%struct._cms_typehandler_struct = type { i32, ptr, ptr, ptr, ptr, ptr, i32 }
%struct._cms_io_handler = type { ptr, ptr, i32, i32, [256 x i8], ptr, ptr, ptr, ptr, ptr }

; Function Attrs: nounwind uwtable
define internal ptr @Type_LUTA2B_Read(ptr noundef %0, ptr noundef %1, ptr noundef %2, i32 noundef %3) #0 {
  %5 = alloca ptr, align 8
  %6 = alloca ptr, align 8
  %7 = alloca ptr, align 8
  %8 = alloca ptr, align 8
  %9 = alloca i32, align 4
  %10 = alloca i32, align 4
  %11 = alloca i8, align 1
  %12 = alloca i8, align 1
  %13 = alloca i32, align 4
  %14 = alloca i32, align 4
  %15 = alloca i32, align 4
  %16 = alloca i32, align 4
  %17 = alloca i32, align 4
  %18 = alloca ptr, align 8
  store ptr %0, ptr %6, align 8
  store ptr %1, ptr %7, align 8
  store ptr %2, ptr %8, align 8
  store i32 %3, ptr %9, align 4
  store ptr null, ptr %18, align 8
  %19 = load ptr, ptr %7, align 8
  %20 = getelementptr inbounds %struct._cms_io_handler, ptr %19, i32 0, i32 8
  %21 = load ptr, ptr %20, align 8
  %22 = load ptr, ptr %7, align 8
  %23 = call i32 %21(ptr noundef %22)
  %24 = zext i32 %23 to i64
  %25 = sub i64 %24, 8
  %26 = trunc i64 %25 to i32
  store i32 %26, ptr %10, align 4
  %27 = load ptr, ptr %7, align 8
  %28 = call i32 @_cmsReadUInt8Number(ptr noundef %27, ptr noundef %11)
  %29 = icmp ne i32 %28, 0
  br i1 %29, label %31, label %30

30:                                               ; preds = %4
  store ptr null, ptr %5, align 8
  br label %186

31:                                               ; preds = %4
  %32 = load ptr, ptr %7, align 8
  %33 = call i32 @_cmsReadUInt8Number(ptr noundef %32, ptr noundef %12)
  %34 = icmp ne i32 %33, 0
  br i1 %34, label %36, label %35

35:                                               ; preds = %31
  store ptr null, ptr %5, align 8
  br label %186

36:                                               ; preds = %31
  %37 = load ptr, ptr %7, align 8
  %38 = call i32 @_cmsReadUInt16Number(ptr noundef %37, ptr noundef null)
  %39 = icmp ne i32 %38, 0
  br i1 %39, label %41, label %40

40:                                               ; preds = %36
  store ptr null, ptr %5, align 8
  br label %186

41:                                               ; preds = %36
  %42 = load ptr, ptr %7, align 8
  %43 = call i32 @_cmsReadUInt32Number(ptr noundef %42, ptr noundef %13)
  %44 = icmp ne i32 %43, 0
  br i1 %44, label %46, label %45

45:                                               ; preds = %41
  store ptr null, ptr %5, align 8
  br label %186

46:                                               ; preds = %41
  %47 = load ptr, ptr %7, align 8
  %48 = call i32 @_cmsReadUInt32Number(ptr noundef %47, ptr noundef %14)
  %49 = icmp ne i32 %48, 0
  br i1 %49, label %51, label %50

50:                                               ; preds = %46
  store ptr null, ptr %5, align 8
  br label %186

51:                                               ; preds = %46
  %52 = load ptr, ptr %7, align 8
  %53 = call i32 @_cmsReadUInt32Number(ptr noundef %52, ptr noundef %15)
  %54 = icmp ne i32 %53, 0
  br i1 %54, label %56, label %55

55:                                               ; preds = %51
  store ptr null, ptr %5, align 8
  br label %186

56:                                               ; preds = %51
  %57 = load ptr, ptr %7, align 8
  %58 = call i32 @_cmsReadUInt32Number(ptr noundef %57, ptr noundef %16)
  %59 = icmp ne i32 %58, 0
  br i1 %59, label %61, label %60

60:                                               ; preds = %56
  store ptr null, ptr %5, align 8
  br label %186

61:                                               ; preds = %56
  %62 = load ptr, ptr %7, align 8
  %63 = call i32 @_cmsReadUInt32Number(ptr noundef %62, ptr noundef %17)
  %64 = icmp ne i32 %63, 0
  br i1 %64, label %66, label %65

65:                                               ; preds = %61
  store ptr null, ptr %5, align 8
  br label %186

66:                                               ; preds = %61
  %67 = load i8, ptr %11, align 1
  %68 = zext i8 %67 to i32
  %69 = icmp eq i32 %68, 0
  br i1 %69, label %74, label %70

70:                                               ; preds = %66
  %71 = load i8, ptr %11, align 1
  %72 = zext i8 %71 to i32
  %73 = icmp sge i32 %72, 16
  br i1 %73, label %74, label %75

74:                                               ; preds = %70, %66
  store ptr null, ptr %5, align 8
  br label %186

75:                                               ; preds = %70
  %76 = load i8, ptr %12, align 1
  %77 = zext i8 %76 to i32
  %78 = icmp eq i32 %77, 0
  br i1 %78, label %83, label %79

79:                                               ; preds = %75
  %80 = load i8, ptr %12, align 1
  %81 = zext i8 %80 to i32
  %82 = icmp sge i32 %81, 16
  br i1 %82, label %83, label %84

83:                                               ; preds = %79, %75
  store ptr null, ptr %5, align 8
  br label %186

84:                                               ; preds = %79
  %85 = load ptr, ptr %6, align 8
  %86 = getelementptr inbounds %struct._cms_typehandler_struct, ptr %85, i32 0, i32 5
  %87 = load ptr, ptr %86, align 8
  %88 = load i8, ptr %11, align 1
  %89 = zext i8 %88 to i32
  %90 = load i8, ptr %12, align 1
  %91 = zext i8 %90 to i32
  %92 = call ptr @cmsPipelineAlloc(ptr noundef %87, i32 noundef %89, i32 noundef %91)
  store ptr %92, ptr %18, align 8
  %93 = load ptr, ptr %18, align 8
  %94 = icmp eq ptr %93, null
  br i1 %94, label %95, label %96

95:                                               ; preds = %84
  store ptr null, ptr %5, align 8
  br label %186

96:                                               ; preds = %84
  %97 = load i32, ptr %17, align 4
  %98 = icmp ne i32 %97, 0
  br i1 %98, label %99, label %113

99:                                               ; preds = %96
  %100 = load ptr, ptr %18, align 8
  %101 = load ptr, ptr %6, align 8
  %102 = load ptr, ptr %7, align 8
  %103 = load i32, ptr %10, align 4
  %104 = load i32, ptr %17, align 4
  %105 = add i32 %103, %104
  %106 = load i8, ptr %11, align 1
  %107 = zext i8 %106 to i32
  %108 = call ptr @ReadSetOfCurves(ptr noundef %101, ptr noundef %102, i32 noundef %105, i32 noundef %107)
  %109 = call i32 @cmsPipelineInsertStage(ptr noundef %100, i32 noundef 1, ptr noundef %108)
  %110 = icmp ne i32 %109, 0
  br i1 %110, label %112, label %111

111:                                              ; preds = %99
  br label %184

112:                                              ; preds = %99
  br label %113

113:                                              ; preds = %112, %96
  %114 = load i32, ptr %16, align 4
  %115 = icmp ne i32 %114, 0
  br i1 %115, label %116, label %132

116:                                              ; preds = %113
  %117 = load ptr, ptr %18, align 8
  %118 = load ptr, ptr %6, align 8
  %119 = load ptr, ptr %7, align 8
  %120 = load i32, ptr %10, align 4
  %121 = load i32, ptr %16, align 4
  %122 = add i32 %120, %121
  %123 = load i8, ptr %11, align 1
  %124 = zext i8 %123 to i32
  %125 = load i8, ptr %12, align 1
  %126 = zext i8 %125 to i32
  %127 = call ptr @ReadCLUT(ptr noundef %118, ptr noundef %119, i32 noundef %122, i32 noundef %124, i32 noundef %126)
  %128 = call i32 @cmsPipelineInsertStage(ptr noundef %117, i32 noundef 1, ptr noundef %127)
  %129 = icmp ne i32 %128, 0
  br i1 %129, label %131, label %130

130:                                              ; preds = %116
  br label %184

131:                                              ; preds = %116
  br label %132

132:                                              ; preds = %131, %113
  %133 = load i32, ptr %15, align 4
  %134 = icmp ne i32 %133, 0
  br i1 %134, label %135, label %149

135:                                              ; preds = %132
  %136 = load ptr, ptr %18, align 8
  %137 = load ptr, ptr %6, align 8
  %138 = load ptr, ptr %7, align 8
  %139 = load i32, ptr %10, align 4
  %140 = load i32, ptr %15, align 4
  %141 = add i32 %139, %140
  %142 = load i8, ptr %12, align 1
  %143 = zext i8 %142 to i32
  %144 = call ptr @ReadSetOfCurves(ptr noundef %137, ptr noundef %138, i32 noundef %141, i32 noundef %143)
  %145 = call i32 @cmsPipelineInsertStage(ptr noundef %136, i32 noundef 1, ptr noundef %144)
  %146 = icmp ne i32 %145, 0
  br i1 %146, label %148, label %147

147:                                              ; preds = %135
  br label %184

148:                                              ; preds = %135
  br label %149

149:                                              ; preds = %148, %132
  %150 = load i32, ptr %14, align 4
  %151 = icmp ne i32 %150, 0
  br i1 %151, label %152, label %164

152:                                              ; preds = %149
  %153 = load ptr, ptr %18, align 8
  %154 = load ptr, ptr %6, align 8
  %155 = load ptr, ptr %7, align 8
  %156 = load i32, ptr %10, align 4
  %157 = load i32, ptr %14, align 4
  %158 = add i32 %156, %157
  %159 = call ptr @ReadMatrix(ptr noundef %154, ptr noundef %155, i32 noundef %158)
  %160 = call i32 @cmsPipelineInsertStage(ptr noundef %153, i32 noundef 1, ptr noundef %159)
  %161 = icmp ne i32 %160, 0
  br i1 %161, label %163, label %162

162:                                              ; preds = %152
  br label %184

163:                                              ; preds = %152
  br label %164

164:                                              ; preds = %163, %149
  %165 = load i32, ptr %13, align 4
  %166 = icmp ne i32 %165, 0
  br i1 %166, label %167, label %181

167:                                              ; preds = %164
  %168 = load ptr, ptr %18, align 8
  %169 = load ptr, ptr %6, align 8
  %170 = load ptr, ptr %7, align 8
  %171 = load i32, ptr %10, align 4
  %172 = load i32, ptr %13, align 4
  %173 = add i32 %171, %172
  %174 = load i8, ptr %12, align 1
  %175 = zext i8 %174 to i32
  %176 = call ptr @ReadSetOfCurves(ptr noundef %169, ptr noundef %170, i32 noundef %173, i32 noundef %175)
  %177 = call i32 @cmsPipelineInsertStage(ptr noundef %168, i32 noundef 1, ptr noundef %176)
  %178 = icmp ne i32 %177, 0
  br i1 %178, label %180, label %179

179:                                              ; preds = %167
  br label %184

180:                                              ; preds = %167
  br label %181

181:                                              ; preds = %180, %164
  %182 = load ptr, ptr %8, align 8
  store i32 1, ptr %182, align 4
  %183 = load ptr, ptr %18, align 8
  store ptr %183, ptr %5, align 8
  br label %186

184:                                              ; preds = %179, %162, %147, %130, %111
  %185 = load ptr, ptr %18, align 8
  call void @cmsPipelineFree(ptr noundef %185)
  store ptr null, ptr %5, align 8
  br label %186

186:                                              ; preds = %184, %181, %95, %83, %74, %65, %60, %55, %50, %45, %40, %35, %30
  %187 = load ptr, ptr %5, align 8
  ret ptr %187
}