; Function Attrs: nounwind uwtable
define internal ptr @Type_LUTA2B_Read(ptr nocapture noundef readonly %0, ptr noundef %1, ptr nocapture noundef writeonly %2, i32 %3) #0 {
  %5 = alloca i8, align 1
  %6 = alloca i8, align 1
  %7 = alloca i32, align 4
  %8 = alloca i32, align 4
  %9 = alloca i32, align 4
  %10 = alloca i32, align 4
  %11 = alloca i32, align 4
  %12 = getelementptr inbounds i8, ptr %1, i64 304
  %13 = load ptr, ptr %12, align 8
  %14 = tail call i32 %13(ptr noundef %1) #13
  %15 = add i32 %14, -8
  %16 = call i32 @_cmsReadUInt8Number(ptr noundef %1, ptr noundef nonnull %5) #13
  %.not = icmp eq i32 %16, 0
  br i1 %.not, label %86, label %17

17:                                               ; preds = %4
  %18 = call i32 @_cmsReadUInt8Number(ptr noundef nonnull %1, ptr noundef nonnull %6) #13
  %.not48 = icmp eq i32 %18, 0
  br i1 %.not48, label %86, label %19

19:                                               ; preds = %17
  %20 = call i32 @_cmsReadUInt16Number(ptr noundef nonnull %1, ptr noundef null) #13
  %.not49 = icmp eq i32 %20, 0
  br i1 %.not49, label %86, label %21

21:                                               ; preds = %19
  %22 = call i32 @_cmsReadUInt32Number(ptr noundef nonnull %1, ptr noundef nonnull %7) #13
  %.not50 = icmp eq i32 %22, 0
  br i1 %.not50, label %86, label %23

23:                                               ; preds = %21
  %24 = call i32 @_cmsReadUInt32Number(ptr noundef nonnull %1, ptr noundef nonnull %8) #13
  %.not51 = icmp eq i32 %24, 0
  br i1 %.not51, label %86, label %25

25:                                               ; preds = %23
  %26 = call i32 @_cmsReadUInt32Number(ptr noundef nonnull %1, ptr noundef nonnull %9) #13
  %.not52 = icmp eq i32 %26, 0
  br i1 %.not52, label %86, label %27

27:                                               ; preds = %25
  %28 = call i32 @_cmsReadUInt32Number(ptr noundef nonnull %1, ptr noundef nonnull %10) #13
  %.not53 = icmp eq i32 %28, 0
  br i1 %.not53, label %86, label %29

29:                                               ; preds = %27
  %30 = call i32 @_cmsReadUInt32Number(ptr noundef nonnull %1, ptr noundef nonnull %11) #13
  %.not54 = icmp eq i32 %30, 0
  br i1 %.not54, label %86, label %31

31:                                               ; preds = %29
  %32 = load i8, ptr %5, align 1
  %33 = zext i8 %32 to i32
  %34 = add i8 %32, -16
  %or.cond = icmp ult i8 %34, -15
  br i1 %or.cond, label %86, label %35

35:                                               ; preds = %31
  %36 = load i8, ptr %6, align 1
  %37 = add i8 %36, -16
  %or.cond5 = icmp ult i8 %37, -15
  br i1 %or.cond5, label %86, label %38

38:                                               ; preds = %35
  %39 = zext nneg i8 %36 to i32
  %40 = getelementptr inbounds i8, ptr %0, i64 40
  %41 = load ptr, ptr %40, align 8
  %42 = call ptr @cmsPipelineAlloc(ptr noundef %41, i32 noundef %33, i32 noundef %39) #13
  %43 = icmp eq ptr %42, null
  br i1 %43, label %86, label %44

44:                                               ; preds = %38
  %45 = load i32, ptr %11, align 4
  %.not55 = icmp eq i32 %45, 0
  br i1 %.not55, label %52, label %46

46:                                               ; preds = %44
  %47 = add i32 %45, %15
  %48 = load i8, ptr %5, align 1
  %49 = zext i8 %48 to i32
  %50 = call fastcc ptr @ReadSetOfCurves(ptr noundef nonnull %0, ptr noundef nonnull %1, i32 noundef %47, i32 noundef %49)
  %51 = call i32 @cmsPipelineInsertStage(ptr noundef nonnull %42, i32 noundef 1, ptr noundef %50) #13
  %.not56 = icmp eq i32 %51, 0
  br i1 %.not56, label %85, label %52

52:                                               ; preds = %46, %44
  %53 = load i32, ptr %10, align 4
  %.not57 = icmp eq i32 %53, 0
  br i1 %.not57, label %62, label %54

54:                                               ; preds = %52
  %55 = add i32 %53, %15
  %56 = load i8, ptr %5, align 1
  %57 = zext i8 %56 to i32
  %58 = load i8, ptr %6, align 1
  %59 = zext i8 %58 to i32
  %60 = call fastcc ptr @ReadCLUT(ptr noundef nonnull %0, ptr noundef nonnull %1, i32 noundef %55, i32 noundef %57, i32 noundef %59)
  %61 = call i32 @cmsPipelineInsertStage(ptr noundef nonnull %42, i32 noundef 1, ptr noundef %60) #13
  %.not58 = icmp eq i32 %61, 0
  br i1 %.not58, label %85, label %62

62:                                               ; preds = %54, %52
  %63 = load i32, ptr %9, align 4
  %.not59 = icmp eq i32 %63, 0
  br i1 %.not59, label %70, label %64

64:                                               ; preds = %62
  %65 = add i32 %63, %15
  %66 = load i8, ptr %6, align 1
  %67 = zext i8 %66 to i32
  %68 = call fastcc ptr @ReadSetOfCurves(ptr noundef nonnull %0, ptr noundef nonnull %1, i32 noundef %65, i32 noundef %67)
  %69 = call i32 @cmsPipelineInsertStage(ptr noundef nonnull %42, i32 noundef 1, ptr noundef %68) #13
  %.not60 = icmp eq i32 %69, 0
  br i1 %.not60, label %85, label %70

70:                                               ; preds = %64, %62
  %71 = load i32, ptr %8, align 4
  %.not61 = icmp eq i32 %71, 0
  br i1 %.not61, label %76, label %72

72:                                               ; preds = %70
  %73 = add i32 %71, %15
  %74 = call fastcc ptr @ReadMatrix(ptr noundef nonnull %0, ptr noundef nonnull %1, i32 noundef %73)
  %75 = call i32 @cmsPipelineInsertStage(ptr noundef nonnull %42, i32 noundef 1, ptr noundef %74) #13
  %.not62 = icmp eq i32 %75, 0
  br i1 %.not62, label %85, label %76

76:                                               ; preds = %72, %70
  %77 = load i32, ptr %7, align 4
  %.not63 = icmp eq i32 %77, 0
  br i1 %.not63, label %84, label %78

78:                                               ; preds = %76
  %79 = add i32 %77, %15
  %80 = load i8, ptr %6, align 1
  %81 = zext i8 %80 to i32
  %82 = call fastcc ptr @ReadSetOfCurves(ptr noundef nonnull %0, ptr noundef nonnull %1, i32 noundef %79, i32 noundef %81)
  %83 = call i32 @cmsPipelineInsertStage(ptr noundef nonnull %42, i32 noundef 1, ptr noundef %82) #13
  %.not64 = icmp eq i32 %83, 0
  br i1 %.not64, label %85, label %84

84:                                               ; preds = %78, %76
  store i32 1, ptr %2, align 4
  br label %86

85:                                               ; preds = %78, %72, %64, %54, %46
  call void @cmsPipelineFree(ptr noundef nonnull %42) #13
  br label %86

86:                                               ; preds = %38, %35, %31, %29, %27, %25, %23, %21, %19, %17, %4, %85, %84
  %.0 = phi ptr [ %42, %84 ], [ null, %85 ], [ null, %4 ], [ null, %17 ], [ null, %19 ], [ null, %21 ], [ null, %23 ], [ null, %25 ], [ null, %27 ], [ null, %29 ], [ null, %31 ], [ null, %35 ], [ null, %38 ]
  ret ptr %.0
}